target datalayout = "e-m:e-p270:32:32-p271:32:32-p272:64:64-i64:64-i128:128-f80:128-n8:16:32:64-S128"
target triple = "x86_64-pc-linux-gnu"

%struct.QArrayData = type { %"class.QtPrivate::RefCount", i32, i32, i64 }
%"class.QtPrivate::RefCount" = type { %class.QBasicAtomicInteger }
%class.QBasicAtomicInteger = type { %"struct.std::atomic" }
%"struct.std::atomic" = type { %"struct.std::__atomic_base" }
%"struct.std::__atomic_base" = type { i32 }
%class.QString = type { ptr }

@.str.8 = private unnamed_addr constant [23 x i8] c"create_fractal_terrain\00", align 1
@.str.9 = private unnamed_addr constant [33 x i8] c"apply_coord_fractal_displacement\00", align 1
@.str.10 = private unnamed_addr constant [37 x i8] c"apply_coord_craters_from_point_cloud\00", align 1
@_ZN10QArrayData11shared_nullE = external global [2 x %struct.QArrayData], align 16

; Function Attrs: mustprogress nounwind uwtable
define linkonce_odr noundef ptr @_ZN10QArrayData10sharedNullEv() #4 comdat align 2 {
  ret ptr @_ZN10QArrayData11shared_nullE
}

; Function Attrs: mustprogress nounwind uwtable
define linkonce_odr noundef ptr @_ZN15QTypedArrayDataItE10sharedNullEv() #4 comdat align 2 {
  %1 = call noundef ptr @_ZN10QArrayData10sharedNullEv() #3
  ret ptr %1
}

; Function Attrs: mustprogress nounwind uwtable
define linkonce_odr void @_ZN7QStringC2Ev(ptr noundef nonnull align 8 dereferenceable(8) %0) unnamed_addr #4 comdat align 2 {
  %2 = alloca ptr, align 8
  store ptr %0, ptr %2, align 8
  %3 = load ptr, ptr %2, align 8
  %4 = getelementptr inbounds %class.QString, ptr %3, i32 0, i32 0
  %5 = call noundef ptr @_ZN15QTypedArrayDataItE10sharedNullEv() #3
  store ptr %5, ptr %4, align 8
  ret void
}

; Function Attrs: mustprogress uwtable
define linkonce_odr void @_ZN7QStringC2EPKc(ptr noundef nonnull align 8 dereferenceable(8) %0, ptr noundef %1) unnamed_addr #5 comdat align 2 {
  %3 = alloca ptr, align 8
  %4 = alloca ptr, align 8
  store ptr %0, ptr %3, align 8
  store ptr %1, ptr %4, align 8
  %5 = load ptr, ptr %3, align 8
  %6 = getelementptr inbounds %class.QString, ptr %5, i32 0, i32 0
  %7 = load ptr, ptr %4, align 8
  %8 = load ptr, ptr %4, align 8
  %9 = icmp ne ptr %8, null
  br i1 %9, label %10, label %14

10:                                               ; preds = %2
  %11 = load ptr, ptr %4, align 8
  %12 = call i64 @strlen(ptr noundef %11) #22
  %13 = trunc i64 %12 to i32
  br label %15

14:                                               ; preds = %2
  br label %15

15:                                               ; preds = %14, %10
  %16 = phi i32 [ %13, %10 ], [ -1, %14 ]
  %17 = call noundef ptr @_ZN7QString16fromAscii_helperEPKci(ptr noundef %7, i32 noundef %16)
  store ptr %17, ptr %6, align 8
  ret void
}

; Function Attrs: mustprogress uwtable
define void @_ZNK13FilterFractal16pythonFilterNameEi(ptr dead_on_unwind noalias writable sret(%class.QString) align 8 %0, ptr noundef nonnull align 8 dereferenceable(80) %1, i32 noundef %2) unnamed_addr #5 align 2 {
  %4 = alloca ptr, align 8
  %5 = alloca ptr, align 8
  %6 = alloca i32, align 4
  store ptr %0, ptr %4, align 8
  store ptr %1, ptr %5, align 8
  store i32 %2, ptr %6, align 4
  %7 = load i32, ptr %6, align 4
  switch i32 %7, label %11 [
    i32 0, label %8
    i32 1, label %9
    i32 2, label %10
  ]

8:                                                ; preds = %3
  call void @_ZN7QStringC2EPKc(ptr noundef nonnull align 8 dereferenceable(8) %0, ptr noundef @.str.8)
  br label %12

9:                                                ; preds = %3
  call void @_ZN7QStringC2EPKc(ptr noundef nonnull align 8 dereferenceable(8) %0, ptr noundef @.str.9)
  br label %12

10:                                               ; preds = %3
  call void @_ZN7QStringC2EPKc(ptr noundef nonnull align 8 dereferenceable(8) %0, ptr noundef @.str.10)
  br label %12

11:                                               ; preds = %3
  call void @_ZN7QStringC2Ev(ptr noundef nonnull align 8 dereferenceable(8) %0) #3
  br label %12

12:                                               ; preds = %11, %10, %9, %8
  ret void
}